; Function Attrs: mustprogress nounwind uwtable
define dso_local void @_ZN4node5http212Http2Session6AltSvcEiPhmS2_m(ptr noundef nonnull align 8 dereferenceable(640) %this, i32 noundef %id, ptr noundef %origin, i64 noundef %origin_len, ptr noundef %value, i64 noundef %value_len) local_unnamed_addr #4 align 2 {
entry:
  %call3.i.i.i = tail call noundef ptr @_ZN4node10BaseObject12pointer_dataEv(ptr noundef nonnull align 8 dereferenceable(32) %this) #29
  %cmp2.not.i.i = icmp eq ptr %call3.i.i.i, null
  br i1 %cmp2.not.i.i, label %do.body6.i.i, label %if.end.i

do.body6.i.i:                                     ; preds = %entry
  tail call void @_ZN4node6AssertERKNS_13AssertionInfoE(ptr noundef nonnull align 8 dereferenceable(24) @_ZZN4node17BaseObjectPtrImplINS_5http212Http2SessionELb0EEC1EPS2_E4args_0) #29
  tail call void @abort() #30
  unreachable

if.end.i:                                         ; preds = %entry
  tail call void @_ZN4node10BaseObject17increase_refcountEv(ptr noundef nonnull align 8 dereferenceable(32) %this) #29
  %flags_.i.i = getelementptr inbounds i8, ptr %this, i64 304
  %0 = load i32, ptr %flags_.i.i, align 8
  %1 = and i32 %0, 3
  %or.cond.not.i = icmp eq i32 %1, 0
  br i1 %or.cond.not.i, label %if.end11.i, label %_ZN4node17BaseObjectPtrImplINS_5http212Http2SessionELb0EE5resetEPS2_.exit.i

_ZN4node17BaseObjectPtrImplINS_5http212Http2SessionELb0EE5resetEPS2_.exit.i: ; preds = %if.end.i
  tail call void @_ZN4node10BaseObject17decrease_refcountEv(ptr noundef nonnull align 8 dereferenceable(32) %this) #29
  br label %_ZN4node5http210Http2ScopeC2EPNS0_12Http2SessionE.exit

if.end11.i:                                       ; preds = %if.end.i
  %and.sink.i.i = or disjoint i32 %0, 1
  store i32 %and.sink.i.i, ptr %flags_.i.i, align 8
  br label %_ZN4node5http210Http2ScopeC2EPNS0_12Http2SessionE.exit

_ZN4node5http210Http2ScopeC2EPNS0_12Http2SessionE.exit: ; preds = %_ZN4node17BaseObjectPtrImplINS_5http212Http2SessionELb0EE5resetEPS2_.exit.i, %if.end11.i
  %h2scope.sroa.0.0 = phi ptr [ %this, %if.end11.i ], [ null, %_ZN4node17BaseObjectPtrImplINS_5http212Http2SessionELb0EE5resetEPS2_.exit.i ]
  %session_ = getelementptr inbounds i8, ptr %this, i64 168
  %2 = load ptr, ptr %session_, align 8
  %call2 = tail call i32 @nghttp2_submit_altsvc(ptr noundef %2, i8 noundef zeroext 0, i32 noundef %id, ptr noundef %origin, i64 noundef %origin_len, ptr noundef %value, i64 noundef %value_len) #29
  %cmp.not = icmp eq i32 %call2, 0
  br i1 %cmp.not, label %do.end7, label %do.body5

do.body5:                                         ; preds = %_ZN4node5http210Http2ScopeC2EPNS0_12Http2SessionE.exit
  tail call void @_ZN4node6AssertERKNS_13AssertionInfoE(ptr noundef nonnull align 8 dereferenceable(24) @_ZZN4node5http212Http2Session6AltSvcEiPhmS2_mE4args) #29
  tail call void @abort() #30
  unreachable

do.end7:                                          ; preds = %_ZN4node5http210Http2ScopeC2EPNS0_12Http2SessionE.exit
  %cmp.i.not.i = icmp eq ptr %h2scope.sroa.0.0, null
  br i1 %cmp.i.not.i, label %_ZN4node5http210Http2ScopeD2Ev.exit, label %if.end.i1

if.end.i1:                                        ; preds = %do.end7
  %flags_.i.i2 = getelementptr inbounds i8, ptr %h2scope.sroa.0.0, i64 304
  %3 = load i32, ptr %flags_.i.i2, align 8
  %and.i.i = and i32 %3, -2
  store i32 %and.i.i, ptr %flags_.i.i2, align 8
  %and.i2.i = and i32 %3, 2
  %tobool.i.not.i = icmp eq i32 %and.i2.i, 0
  br i1 %tobool.i.not.i, label %cleanup.i, label %if.then.i.i

cleanup.i:                                        ; preds = %if.end.i1
  tail call void @_ZN4node5http212Http2Session18MaybeScheduleWriteEv(ptr noundef nonnull align 8 dereferenceable(640) %h2scope.sroa.0.0)
  br label %if.then.i.i

if.then.i.i:                                      ; preds = %cleanup.i, %if.end.i1
  tail call void @_ZN4node10BaseObject17decrease_refcountEv(ptr noundef nonnull align 8 dereferenceable(32) %h2scope.sroa.0.0) #29
  br label %_ZN4node5http210Http2ScopeD2Ev.exit

_ZN4node5http210Http2ScopeD2Ev.exit:              ; preds = %do.end7, %if.then.i.i
  ret void
}